; Function Attrs: mustprogress null_pointer_is_valid sspstrong uwtable
define internal void @"_ZN9QtPrivate18QFunctorSlotObjectIZN22ManageInterfacesDialogC1EP7QWidgetE3$_0Li2ENS_4ListIJRK14QItemSelectionS8_EEEvE4implEiPNS_15QSlotObjectBaseEP7QObjectPPvPb"(i32 noundef %0, ptr noundef %1, ptr readnone captures(none) %2, ptr noundef readonly captures(none) %3, ptr readnone captures(none) %4) #0 align 2 {
  switch i32 %0, label %16 [
    i32 0, label %6
    i32 1, label %9
  ]

6:                                                ; preds = %5
  %7 = icmp eq ptr %1, null
  br i1 %7, label %16, label %8

8:                                                ; preds = %6
  tail call void @_ZdlPvm(ptr noundef nonnull %1, i64 noundef 24) #18
  br label %16

9:                                                ; preds = %5
  %10 = getelementptr inbounds nuw i8, ptr %1, i64 16
  %.val = load ptr, ptr %10, align 8
  %11 = getelementptr i8, ptr %3, i64 8
  %.val4 = load ptr, ptr %11, align 8
  %12 = getelementptr i8, ptr %.val, i64 72
  %.val.val = load ptr, ptr %12, align 8
  %13 = getelementptr i8, ptr %.val4, i64 16
  %.val4.val = load i64, ptr %13, align 8
  %14 = getelementptr i8, ptr %.val.val, i64 80
  %.val.val.val = load ptr, ptr %14, align 8
  %15 = icmp sgt i64 %.val4.val, 0
  tail call void @_ZN7QWidget10setEnabledEb(ptr noundef align 8 dereferenceable_or_null(40) %.val.val.val, i1 noundef zeroext %15)
  br label %16

16:                                               ; preds = %6, %8, %9, %5
  ret void
}